target datalayout = "e-m:e-p270:32:32-p271:32:32-p272:64:64-i64:64-i128:128-f80:128-n8:16:32:64-S128"
target triple = "x86_64-pc-linux-gnu"

%struct._object = type { %union.anon, ptr }
%union.anon = type { i64 }
%struct.PyVarObject = type { %struct._object, i64 }
%struct.PyTupleObject = type { %struct.PyVarObject, [1 x ptr] }

@PyExc_ValueError = external global ptr, align 8
@.str.17 = private unnamed_addr constant [32 x i8] c"fd out of range in fds_to_keep.\00", align 1

; Function Attrs: inlinehint nounwind uwtable
define internal i64 @Py_SIZE(ptr noundef %0) #3 {
  %2 = alloca ptr, align 8
  store ptr %0, ptr %2, align 8, !tbaa !3
  %3 = load ptr, ptr %2, align 8, !tbaa !3
  %4 = getelementptr inbounds nuw %struct.PyVarObject, ptr %3, i32 0, i32 1
  %5 = load i64, ptr %4, align 8, !tbaa !53
  ret i64 %5
}

; Function Attrs: inlinehint nounwind uwtable
define internal i64 @PyTuple_GET_SIZE(ptr noundef %0) #3 {
  %2 = alloca ptr, align 8
  %3 = alloca ptr, align 8
  store ptr %0, ptr %2, align 8, !tbaa !3
  call void @llvm.lifetime.start.p0(i64 8, ptr %3) #13
  %4 = load ptr, ptr %2, align 8, !tbaa !3
  store ptr %4, ptr %3, align 8, !tbaa !38
  %5 = load ptr, ptr %3, align 8, !tbaa !38
  %6 = call i64 @Py_SIZE(ptr noundef %5)
  call void @llvm.lifetime.end.p0(i64 8, ptr %3) #13
  ret i64 %6
}

; Function Attrs: nounwind uwtable
define internal i32 @convert_fds_to_keep_to_c(ptr noundef %0, ptr noundef %1) #0 {
  %3 = alloca i32, align 4
  %4 = alloca ptr, align 8
  %5 = alloca ptr, align 8
  %6 = alloca i64, align 8
  %7 = alloca i64, align 8
  %8 = alloca ptr, align 8
  %9 = alloca i64, align 8
  %10 = alloca i32, align 4
  store ptr %0, ptr %4, align 8, !tbaa !3
  store ptr %1, ptr %5, align 8, !tbaa !26
  call void @llvm.lifetime.start.p0(i64 8, ptr %6) #13
  call void @llvm.lifetime.start.p0(i64 8, ptr %7) #13
  %11 = load ptr, ptr %4, align 8, !tbaa !3
  %12 = call i64 @PyTuple_GET_SIZE(ptr noundef %11)
  store i64 %12, ptr %7, align 8, !tbaa !10
  store i64 0, ptr %6, align 8, !tbaa !10
  br label %13

13:                                               ; preds = %48, %2
  %14 = load i64, ptr %6, align 8, !tbaa !10
  %15 = load i64, ptr %7, align 8, !tbaa !10
  %16 = icmp slt i64 %14, %15
  br i1 %16, label %17, label %51

17:                                               ; preds = %13
  call void @llvm.lifetime.start.p0(i64 8, ptr %8) #13
  %18 = load ptr, ptr %4, align 8, !tbaa !3
  %19 = getelementptr inbounds nuw %struct.PyTupleObject, ptr %18, i32 0, i32 1
  %20 = load i64, ptr %6, align 8, !tbaa !10
  %21 = getelementptr [1 x ptr], ptr %19, i64 0, i64 %20
  %22 = load ptr, ptr %21, align 8, !tbaa !3
  store ptr %22, ptr %8, align 8, !tbaa !3
  call void @llvm.lifetime.start.p0(i64 8, ptr %9) #13
  %23 = load ptr, ptr %8, align 8, !tbaa !3
  %24 = call i64 @PyLong_AsLong(ptr noundef %23)
  store i64 %24, ptr %9, align 8, !tbaa !10
  %25 = load i64, ptr %9, align 8, !tbaa !10
  %26 = icmp eq i64 %25, -1
  br i1 %26, label %27, label %31

27:                                               ; preds = %17
  %28 = call ptr @PyErr_Occurred()
  %29 = icmp ne ptr %28, null
  br i1 %29, label %30, label %31

30:                                               ; preds = %27
  store i32 -1, ptr %3, align 4
  store i32 1, ptr %10, align 4
  br label %45

31:                                               ; preds = %27, %17
  %32 = load i64, ptr %9, align 8, !tbaa !10
  %33 = icmp slt i64 %32, 0
  br i1 %33, label %37, label %34

34:                                               ; preds = %31
  %35 = load i64, ptr %9, align 8, !tbaa !10
  %36 = icmp sgt i64 %35, 2147483647
  br i1 %36, label %37, label %39

37:                                               ; preds = %34, %31
  %38 = load ptr, ptr @PyExc_ValueError, align 8, !tbaa !3
  call void @PyErr_SetString(ptr noundef %38, ptr noundef @.str.17)
  store i32 -1, ptr %3, align 4
  store i32 1, ptr %10, align 4
  br label %45

39:                                               ; preds = %34
  %40 = load i64, ptr %9, align 8, !tbaa !10
  %41 = trunc i64 %40 to i32
  %42 = load ptr, ptr %5, align 8, !tbaa !26
  %43 = load i64, ptr %6, align 8, !tbaa !10
  %44 = getelementptr i32, ptr %42, i64 %43
  store i32 %41, ptr %44, align 4, !tbaa !12
  store i32 0, ptr %10, align 4
  br label %45

45:                                               ; preds = %39, %37, %30
  call void @llvm.lifetime.end.p0(i64 8, ptr %9) #13
  call void @llvm.lifetime.end.p0(i64 8, ptr %8) #13
  %46 = load i32, ptr %10, align 4
  switch i32 %46, label %52 [
    i32 0, label %47
  ]

47:                                               ; preds = %45
  br label %48

48:                                               ; preds = %47
  %49 = load i64, ptr %6, align 8, !tbaa !10
  %50 = add i64 %49, 1
  store i64 %50, ptr %6, align 8, !tbaa !10
  br label %13, !llvm.loop !51

51:                                               ; preds = %13
  store i32 0, ptr %3, align 4
  store i32 1, ptr %10, align 4
  br label %52

52:                                               ; preds = %51, %45
  call void @llvm.lifetime.end.p0(i64 8, ptr %7) #13
  call void @llvm.lifetime.end.p0(i64 8, ptr %6) #13
  %53 = load i32, ptr %3, align 4
  ret i32 %53
}