; Function Attrs: nounwind uwtable
define internal fastcc range(i32 -1, 1) i32 @convert_fds_to_keep_to_c(ptr noundef readonly captures(none) %0, ptr noundef nonnull writeonly captures(none) %1) unnamed_addr #0 {
  %3 = getelementptr i8, ptr %0, i64 16
  %.val = load i64, ptr %3, align 8, !tbaa !21
  %4 = icmp sgt i64 %.val, 0
  br i1 %4, label %.lr.ph, label %.critedge

.lr.ph:                                           ; preds = %2
  %5 = getelementptr inbounds nuw i8, ptr %0, i64 24
  br label %6

6:                                                ; preds = %.lr.ph, %15
  %.01619 = phi i64 [ 0, %.lr.ph ], [ %18, %15 ]
  %7 = getelementptr [1 x ptr], ptr %5, i64 0, i64 %.01619
  %8 = load ptr, ptr %7, align 8, !tbaa !3
  %9 = tail call i64 @PyLong_AsLong(ptr noundef %8) #12
  %10 = icmp eq i64 %9, -1
  br i1 %10, label %11, label %13

11:                                               ; preds = %6
  %12 = tail call ptr @PyErr_Occurred() #12
  %.not = icmp eq ptr %12, null
  br i1 %.not, label %.thread, label %.critedge

13:                                               ; preds = %6
  %or.cond = icmp ugt i64 %9, 2147483647
  br i1 %or.cond, label %.thread, label %15

.thread:                                          ; preds = %13, %11
  %14 = load ptr, ptr @PyExc_ValueError, align 8, !tbaa !3
  tail call void @PyErr_SetString(ptr noundef %14, ptr noundef nonnull @.str.17) #12
  br label %.critedge

15:                                               ; preds = %13
  %16 = trunc nuw nsw i64 %9 to i32
  %17 = getelementptr i32, ptr %1, i64 %.01619
  store i32 %16, ptr %17, align 4, !tbaa !38
  %18 = add nuw nsw i64 %.01619, 1
  %exitcond.not = icmp eq i64 %18, %.val
  br i1 %exitcond.not, label %.critedge, label %6, !llvm.loop !43

.critedge:                                        ; preds = %15, %2, %.thread, %11
  %.2 = phi i32 [ -1, %11 ], [ -1, %.thread ], [ 0, %2 ], [ 0, %15 ]
  ret i32 %.2
}